target datalayout = "e-m:e-p270:32:32-p271:32:32-p272:64:64-i64:64-i128:128-f80:128-n8:16:32:64-S128"
target triple = "x86_64-pc-linux-gnu"

@Truth6 = internal global [6 x i64] [i64 -6148914691236517206, i64 -3689348814741910324, i64 -1085102592571150096, i64 -71777214294589696, i64 -281470681808896, i64 -4294967296], align 16

; Function Attrs: inlinehint nounwind uwtable
define internal i32 @If_Dec7SuppSize(ptr noundef %0) #3 {
  %2 = alloca ptr, align 8
  %3 = alloca [2 x i64], align 16
  %4 = alloca [2 x i64], align 16
  %5 = alloca i32, align 4
  %6 = alloca i32, align 4
  store ptr %0, ptr %2, align 8, !tbaa !15
  call void @llvm.lifetime.start.p0(i64 16, ptr %3) #7
  call void @llvm.lifetime.start.p0(i64 16, ptr %4) #7
  call void @llvm.lifetime.start.p0(i64 4, ptr %5) #7
  call void @llvm.lifetime.start.p0(i64 4, ptr %6) #7
  store i32 0, ptr %6, align 4, !tbaa !7
  store i32 0, ptr %5, align 4, !tbaa !7
  br label %7

7:                                                ; preds = %32, %1
  %8 = load i32, ptr %5, align 4, !tbaa !7
  %9 = icmp slt i32 %8, 7
  br i1 %9, label %10, label %35

10:                                               ; preds = %7
  %11 = load ptr, ptr %2, align 8, !tbaa !15
  %12 = load i32, ptr %5, align 4, !tbaa !7
  %13 = getelementptr inbounds [2 x i64], ptr %3, i64 0, i64 0
  call void @If_Dec7Cofactor(ptr noundef %11, i32 noundef %12, i32 noundef 0, ptr noundef %13)
  %14 = load ptr, ptr %2, align 8, !tbaa !15
  %15 = load i32, ptr %5, align 4, !tbaa !7
  %16 = getelementptr inbounds [2 x i64], ptr %4, i64 0, i64 0
  call void @If_Dec7Cofactor(ptr noundef %14, i32 noundef %15, i32 noundef 1, ptr noundef %16)
  %17 = getelementptr inbounds [2 x i64], ptr %3, i64 0, i64 0
  %18 = load i64, ptr %17, align 16, !tbaa !3
  %19 = getelementptr inbounds [2 x i64], ptr %4, i64 0, i64 0
  %20 = load i64, ptr %19, align 16, !tbaa !3
  %21 = icmp ne i64 %18, %20
  br i1 %21, label %28, label %22

22:                                               ; preds = %10
  %23 = getelementptr inbounds [2 x i64], ptr %3, i64 0, i64 1
  %24 = load i64, ptr %23, align 8, !tbaa !3
  %25 = getelementptr inbounds [2 x i64], ptr %4, i64 0, i64 1
  %26 = load i64, ptr %25, align 8, !tbaa !3
  %27 = icmp ne i64 %24, %26
  br i1 %27, label %28, label %31

28:                                               ; preds = %22, %10
  %29 = load i32, ptr %6, align 4, !tbaa !7
  %30 = add nsw i32 %29, 1
  store i32 %30, ptr %6, align 4, !tbaa !7
  br label %31

31:                                               ; preds = %28, %22
  br label %32

32:                                               ; preds = %31
  %33 = load i32, ptr %5, align 4, !tbaa !7
  %34 = add nsw i32 %33, 1
  store i32 %34, ptr %5, align 4, !tbaa !7
  br label %7, !llvm.loop !57

35:                                               ; preds = %7
  %36 = load i32, ptr %6, align 4, !tbaa !7
  call void @llvm.lifetime.end.p0(i64 4, ptr %6) #7
  call void @llvm.lifetime.end.p0(i64 4, ptr %5) #7
  call void @llvm.lifetime.end.p0(i64 16, ptr %4) #7
  call void @llvm.lifetime.end.p0(i64 16, ptr %3) #7
  ret i32 %36
}

; Function Attrs: inlinehint nounwind uwtable
define internal void @If_Dec7Cofactor(ptr noundef %0, i32 noundef %1, i32 noundef %2, ptr noundef %3) #3 {
  %5 = alloca ptr, align 8
  %6 = alloca i32, align 4
  %7 = alloca i32, align 4
  %8 = alloca ptr, align 8
  store ptr %0, ptr %5, align 8, !tbaa !15
  store i32 %1, ptr %6, align 4, !tbaa !7
  store i32 %2, ptr %7, align 4, !tbaa !7
  store ptr %3, ptr %8, align 8, !tbaa !15
  %9 = load i32, ptr %6, align 4, !tbaa !7
  %10 = icmp eq i32 %9, 6
  br i1 %10, label %11, label %31

11:                                               ; preds = %4
  %12 = load i32, ptr %7, align 4, !tbaa !7
  %13 = icmp ne i32 %12, 0
  br i1 %13, label %14, label %22

14:                                               ; preds = %11
  %15 = load ptr, ptr %5, align 8, !tbaa !15
  %16 = getelementptr inbounds i64, ptr %15, i64 1
  %17 = load i64, ptr %16, align 8, !tbaa !3
  %18 = load ptr, ptr %8, align 8, !tbaa !15
  %19 = getelementptr inbounds i64, ptr %18, i64 1
  store i64 %17, ptr %19, align 8, !tbaa !3
  %20 = load ptr, ptr %8, align 8, !tbaa !15
  %21 = getelementptr inbounds i64, ptr %20, i64 0
  store i64 %17, ptr %21, align 8, !tbaa !3
  br label %30

22:                                               ; preds = %11
  %23 = load ptr, ptr %5, align 8, !tbaa !15
  %24 = getelementptr inbounds i64, ptr %23, i64 0
  %25 = load i64, ptr %24, align 8, !tbaa !3
  %26 = load ptr, ptr %8, align 8, !tbaa !15
  %27 = getelementptr inbounds i64, ptr %26, i64 1
  store i64 %25, ptr %27, align 8, !tbaa !3
  %28 = load ptr, ptr %8, align 8, !tbaa !15
  %29 = getelementptr inbounds i64, ptr %28, i64 0
  store i64 %25, ptr %29, align 8, !tbaa !3
  br label %30

30:                                               ; preds = %22, %14
  br label %133

31:                                               ; preds = %4
  %32 = load i32, ptr %7, align 4, !tbaa !7
  %33 = icmp ne i32 %32, 0
  br i1 %33, label %34, label %81

34:                                               ; preds = %31
  %35 = load ptr, ptr %5, align 8, !tbaa !15
  %36 = getelementptr inbounds i64, ptr %35, i64 0
  %37 = load i64, ptr %36, align 8, !tbaa !3
  %38 = load i32, ptr %6, align 4, !tbaa !7
  %39 = sext i32 %38 to i64
  %40 = getelementptr inbounds [6 x i64], ptr @Truth6, i64 0, i64 %39
  %41 = load i64, ptr %40, align 8, !tbaa !3
  %42 = and i64 %37, %41
  %43 = load ptr, ptr %5, align 8, !tbaa !15
  %44 = getelementptr inbounds i64, ptr %43, i64 0
  %45 = load i64, ptr %44, align 8, !tbaa !3
  %46 = load i32, ptr %6, align 4, !tbaa !7
  %47 = sext i32 %46 to i64
  %48 = getelementptr inbounds [6 x i64], ptr @Truth6, i64 0, i64 %47
  %49 = load i64, ptr %48, align 8, !tbaa !3
  %50 = and i64 %45, %49
  %51 = load i32, ptr %6, align 4, !tbaa !7
  %52 = shl i32 1, %51
  %53 = zext i32 %52 to i64
  %54 = lshr i64 %50, %53
  %55 = or i64 %42, %54
  %56 = load ptr, ptr %8, align 8, !tbaa !15
  %57 = getelementptr inbounds i64, ptr %56, i64 0
  store i64 %55, ptr %57, align 8, !tbaa !3
  %58 = load ptr, ptr %5, align 8, !tbaa !15
  %59 = getelementptr inbounds i64, ptr %58, i64 1
  %60 = load i64, ptr %59, align 8, !tbaa !3
  %61 = load i32, ptr %6, align 4, !tbaa !7
  %62 = sext i32 %61 to i64
  %63 = getelementptr inbounds [6 x i64], ptr @Truth6, i64 0, i64 %62
  %64 = load i64, ptr %63, align 8, !tbaa !3
  %65 = and i64 %60, %64
  %66 = load ptr, ptr %5, align 8, !tbaa !15
  %67 = getelementptr inbounds i64, ptr %66, i64 1
  %68 = load i64, ptr %67, align 8, !tbaa !3
  %69 = load i32, ptr %6, align 4, !tbaa !7
  %70 = sext i32 %69 to i64
  %71 = getelementptr inbounds [6 x i64], ptr @Truth6, i64 0, i64 %70
  %72 = load i64, ptr %71, align 8, !tbaa !3
  %73 = and i64 %68, %72
  %74 = load i32, ptr %6, align 4, !tbaa !7
  %75 = shl i32 1, %74
  %76 = zext i32 %75 to i64
  %77 = lshr i64 %73, %76
  %78 = or i64 %65, %77
  %79 = load ptr, ptr %8, align 8, !tbaa !15
  %80 = getelementptr inbounds i64, ptr %79, i64 1
  store i64 %78, ptr %80, align 8, !tbaa !3
  br label %132

81:                                               ; preds = %31
  %82 = load ptr, ptr %5, align 8, !tbaa !15
  %83 = getelementptr inbounds i64, ptr %82, i64 0
  %84 = load i64, ptr %83, align 8, !tbaa !3
  %85 = load i32, ptr %6, align 4, !tbaa !7
  %86 = sext i32 %85 to i64
  %87 = getelementptr inbounds [6 x i64], ptr @Truth6, i64 0, i64 %86
  %88 = load i64, ptr %87, align 8, !tbaa !3
  %89 = xor i64 %88, -1
  %90 = and i64 %84, %89
  %91 = load ptr, ptr %5, align 8, !tbaa !15
  %92 = getelementptr inbounds i64, ptr %91, i64 0
  %93 = load i64, ptr %92, align 8, !tbaa !3
  %94 = load i32, ptr %6, align 4, !tbaa !7
  %95 = sext i32 %94 to i64
  %96 = getelementptr inbounds [6 x i64], ptr @Truth6, i64 0, i64 %95
  %97 = load i64, ptr %96, align 8, !tbaa !3
  %98 = xor i64 %97, -1
  %99 = and i64 %93, %98
  %100 = load i32, ptr %6, align 4, !tbaa !7
  %101 = shl i32 1, %100
  %102 = zext i32 %101 to i64
  %103 = shl i64 %99, %102
  %104 = or i64 %90, %103
  %105 = load ptr, ptr %8, align 8, !tbaa !15
  %106 = getelementptr inbounds i64, ptr %105, i64 0
  store i64 %104, ptr %106, align 8, !tbaa !3
  %107 = load ptr, ptr %5, align 8, !tbaa !15
  %108 = getelementptr inbounds i64, ptr %107, i64 1
  %109 = load i64, ptr %108, align 8, !tbaa !3
  %110 = load i32, ptr %6, align 4, !tbaa !7
  %111 = sext i32 %110 to i64
  %112 = getelementptr inbounds [6 x i64], ptr @Truth6, i64 0, i64 %111
  %113 = load i64, ptr %112, align 8, !tbaa !3
  %114 = xor i64 %113, -1
  %115 = and i64 %109, %114
  %116 = load ptr, ptr %5, align 8, !tbaa !15
  %117 = getelementptr inbounds i64, ptr %116, i64 1
  %118 = load i64, ptr %117, align 8, !tbaa !3
  %119 = load i32, ptr %6, align 4, !tbaa !7
  %120 = sext i32 %119 to i64
  %121 = getelementptr inbounds [6 x i64], ptr @Truth6, i64 0, i64 %120
  %122 = load i64, ptr %121, align 8, !tbaa !3
  %123 = xor i64 %122, -1
  %124 = and i64 %118, %123
  %125 = load i32, ptr %6, align 4, !tbaa !7
  %126 = shl i32 1, %125
  %127 = zext i32 %126 to i64
  %128 = shl i64 %124, %127
  %129 = or i64 %115, %128
  %130 = load ptr, ptr %8, align 8, !tbaa !15
  %131 = getelementptr inbounds i64, ptr %130, i64 1
  store i64 %129, ptr %131, align 8, !tbaa !3
  br label %132

132:                                              ; preds = %81, %34
  br label %133

133:                                              ; preds = %132, %30
  ret void
}

; Function Attrs: nounwind uwtable
define i32 @If_Dec7PickBestMux(ptr noundef %0, ptr noundef %1, ptr noundef %2) #0 {
  %4 = alloca ptr, align 8
  %5 = alloca ptr, align 8
  %6 = alloca ptr, align 8
  %7 = alloca [2 x i64], align 16
  %8 = alloca [2 x i64], align 16
  %9 = alloca i32, align 4
  %10 = alloca i32, align 4
  %11 = alloca i32, align 4
  %12 = alloca i32, align 4
  %13 = alloca i32, align 4
  store ptr %0, ptr %4, align 8, !tbaa !15
  store ptr %1, ptr %5, align 8, !tbaa !15
  store ptr %2, ptr %6, align 8, !tbaa !15
  call void @llvm.lifetime.start.p0(i64 16, ptr %7) #7
  call void @llvm.lifetime.start.p0(i64 16, ptr %8) #7
  call void @llvm.lifetime.start.p0(i64 4, ptr %9) #7
  call void @llvm.lifetime.start.p0(i64 4, ptr %10) #7
  store i32 -1, ptr %10, align 4, !tbaa !7
  call void @llvm.lifetime.start.p0(i64 4, ptr %11) #7
  call void @llvm.lifetime.start.p0(i64 4, ptr %12) #7
  call void @llvm.lifetime.start.p0(i64 4, ptr %13) #7
  store i32 1000, ptr %13, align 4, !tbaa !7
  store i32 0, ptr %9, align 4, !tbaa !7
  br label %14

14:                                               ; preds = %61, %3
  %15 = load i32, ptr %9, align 4, !tbaa !7
  %16 = icmp slt i32 %15, 7
  br i1 %16, label %17, label %64

17:                                               ; preds = %14
  %18 = load ptr, ptr %4, align 8, !tbaa !15
  %19 = load i32, ptr %9, align 4, !tbaa !7
  %20 = getelementptr inbounds [2 x i64], ptr %7, i64 0, i64 0
  call void @If_Dec7Cofactor(ptr noundef %18, i32 noundef %19, i32 noundef 0, ptr noundef %20)
  %21 = load ptr, ptr %4, align 8, !tbaa !15
  %22 = load i32, ptr %9, align 4, !tbaa !7
  %23 = getelementptr inbounds [2 x i64], ptr %8, i64 0, i64 0
  call void @If_Dec7Cofactor(ptr noundef %21, i32 noundef %22, i32 noundef 1, ptr noundef %23)
  %24 = getelementptr inbounds [2 x i64], ptr %7, i64 0, i64 0
  %25 = call i32 @If_Dec7SuppSize(ptr noundef %24)
  store i32 %25, ptr %11, align 4, !tbaa !7
  %26 = getelementptr inbounds [2 x i64], ptr %8, i64 0, i64 0
  %27 = call i32 @If_Dec7SuppSize(ptr noundef %26)
  store i32 %27, ptr %12, align 4, !tbaa !7
  %28 = load i32, ptr %11, align 4, !tbaa !7
  %29 = icmp slt i32 %28, 5
  br i1 %29, label %30, label %60

30:                                               ; preds = %17
  %31 = load i32, ptr %12, align 4, !tbaa !7
  %32 = icmp slt i32 %31, 5
  br i1 %32, label %33, label %60

33:                                               ; preds = %30
  %34 = load i32, ptr %13, align 4, !tbaa !7
  %35 = load i32, ptr %11, align 4, !tbaa !7
  %36 = load i32, ptr %12, align 4, !tbaa !7
  %37 = add nsw i32 %35, %36
  %38 = icmp sgt i32 %34, %37
  br i1 %38, label %39, label %60

39:                                               ; preds = %33
  %40 = load i32, ptr %11, align 4, !tbaa !7
  %41 = load i32, ptr %12, align 4, !tbaa !7
  %42 = add nsw i32 %40, %41
  store i32 %42, ptr %13, align 4, !tbaa !7
  %43 = load i32, ptr %9, align 4, !tbaa !7
  store i32 %43, ptr %10, align 4, !tbaa !7
  %44 = getelementptr inbounds [2 x i64], ptr %7, i64 0, i64 0
  %45 = load i64, ptr %44, align 16, !tbaa !3
  %46 = load ptr, ptr %5, align 8, !tbaa !15
  %47 = getelementptr inbounds i64, ptr %46, i64 0
  store i64 %45, ptr %47, align 8, !tbaa !3
  %48 = getelementptr inbounds [2 x i64], ptr %7, i64 0, i64 1
  %49 = load i64, ptr %48, align 8, !tbaa !3
  %50 = load ptr, ptr %5, align 8, !tbaa !15
  %51 = getelementptr inbounds i64, ptr %50, i64 1
  store i64 %49, ptr %51, align 8, !tbaa !3
  %52 = getelementptr inbounds [2 x i64], ptr %8, i64 0, i64 0
  %53 = load i64, ptr %52, align 16, !tbaa !3
  %54 = load ptr, ptr %6, align 8, !tbaa !15
  %55 = getelementptr inbounds i64, ptr %54, i64 0
  store i64 %53, ptr %55, align 8, !tbaa !3
  %56 = getelementptr inbounds [2 x i64], ptr %8, i64 0, i64 1
  %57 = load i64, ptr %56, align 8, !tbaa !3
  %58 = load ptr, ptr %6, align 8, !tbaa !15
  %59 = getelementptr inbounds i64, ptr %58, i64 1
  store i64 %57, ptr %59, align 8, !tbaa !3
  br label %60

60:                                               ; preds = %39, %33, %30, %17
  br label %61

61:                                               ; preds = %60
  %62 = load i32, ptr %9, align 4, !tbaa !7
  %63 = add nsw i32 %62, 1
  store i32 %63, ptr %9, align 4, !tbaa !7
  br label %14, !llvm.loop !56

64:                                               ; preds = %14
  %65 = load i32, ptr %10, align 4, !tbaa !7
  call void @llvm.lifetime.end.p0(i64 4, ptr %13) #7
  call void @llvm.lifetime.end.p0(i64 4, ptr %12) #7
  call void @llvm.lifetime.end.p0(i64 4, ptr %11) #7
  call void @llvm.lifetime.end.p0(i64 4, ptr %10) #7
  call void @llvm.lifetime.end.p0(i64 4, ptr %9) #7
  call void @llvm.lifetime.end.p0(i64 16, ptr %8) #7
  call void @llvm.lifetime.end.p0(i64 16, ptr %7) #7
  ret i32 %65
}