; Function Attrs: nofree norecurse nosync nounwind memory(argmem: readwrite) uwtable
define i32 @If_Dec7PickBestMux(ptr noundef readonly captures(none) %0, ptr noundef writeonly captures(none) %1, ptr noundef writeonly captures(none) %2) local_unnamed_addr #6 {
  %4 = getelementptr inbounds nuw i8, ptr %0, i64 8
  %5 = getelementptr inbounds nuw i8, ptr %1, i64 8
  %6 = getelementptr inbounds nuw i8, ptr %2, i64 8
  br label %7

7:                                                ; preds = %3, %82
  %indvars.iv = phi i64 [ 0, %3 ], [ %indvars.iv.next, %82 ]
  %.057 = phi i32 [ 1000, %3 ], [ %.1, %82 ]
  %.02055 = phi i32 [ -1, %3 ], [ %.121, %82 ]
  %8 = icmp eq i64 %indvars.iv, 6
  %9 = load i64, ptr %0, align 8, !tbaa !10
  br i1 %8, label %10, label %12

10:                                               ; preds = %7
  %11 = load i64, ptr %4, align 8, !tbaa !10
  br label %If_Dec7Cofactor.exit28

12:                                               ; preds = %7
  %13 = getelementptr inbounds nuw [6 x i64], ptr @s_Truths6, i64 0, i64 %indvars.iv
  %14 = load i64, ptr %13, align 8, !tbaa !10
  %15 = xor i64 %14, -1
  %16 = and i64 %9, %15
  %17 = trunc nuw nsw i64 %indvars.iv to i32
  %18 = shl nuw nsw i32 1, %17
  %19 = zext nneg i32 %18 to i64
  %20 = shl i64 %16, %19
  %21 = or i64 %20, %16
  %22 = load i64, ptr %4, align 8, !tbaa !10
  %23 = and i64 %22, %15
  %24 = shl i64 %23, %19
  %25 = or i64 %24, %23
  %26 = and i64 %14, %9
  %27 = lshr i64 %26, %19
  %28 = or i64 %27, %26
  %29 = and i64 %22, %14
  %30 = lshr i64 %29, %19
  %31 = or i64 %30, %29
  br label %If_Dec7Cofactor.exit28

If_Dec7Cofactor.exit28:                           ; preds = %10, %12
  %.sroa.045.053 = phi i64 [ %9, %10 ], [ %21, %12 ]
  %.sroa.647.051 = phi i64 [ %9, %10 ], [ %25, %12 ]
  %.sroa.6.0 = phi i64 [ %11, %10 ], [ %31, %12 ]
  %.sroa.0.0 = phi i64 [ %11, %10 ], [ %28, %12 ]
  br label %32

32:                                               ; preds = %If_Dec7Cofactor.exit9.i, %If_Dec7Cofactor.exit28
  %indvars.iv.i = phi i64 [ 0, %If_Dec7Cofactor.exit28 ], [ %indvars.iv.next.i, %If_Dec7Cofactor.exit9.i ]
  %.010.i = phi i32 [ 0, %If_Dec7Cofactor.exit28 ], [ %.1.i, %If_Dec7Cofactor.exit9.i ]
  %33 = icmp eq i64 %indvars.iv.i, 6
  br i1 %33, label %If_Dec7Cofactor.exit9.i, label %34

34:                                               ; preds = %32
  %35 = getelementptr inbounds nuw [6 x i64], ptr @s_Truths6, i64 0, i64 %indvars.iv.i
  %36 = load i64, ptr %35, align 8, !tbaa !10
  %37 = xor i64 %36, -1
  %38 = and i64 %.sroa.045.053, %37
  %39 = trunc nuw nsw i64 %indvars.iv.i to i32
  %40 = shl nuw nsw i32 1, %39
  %41 = zext nneg i32 %40 to i64
  %42 = shl i64 %38, %41
  %43 = or i64 %42, %38
  %44 = and i64 %.sroa.647.051, %37
  %45 = shl i64 %44, %41
  %46 = or i64 %45, %44
  %47 = and i64 %36, %.sroa.045.053
  %48 = lshr i64 %47, %41
  %49 = or i64 %48, %47
  %50 = and i64 %36, %.sroa.647.051
  %51 = lshr i64 %50, %41
  %52 = or i64 %51, %50
  br label %If_Dec7Cofactor.exit9.i

If_Dec7Cofactor.exit9.i:                          ; preds = %34, %32
  %.sroa.01.07.i = phi i64 [ %43, %34 ], [ %.sroa.045.053, %32 ]
  %.sroa.52.05.i = phi i64 [ %46, %34 ], [ %.sroa.045.053, %32 ]
  %.sroa.5.0.i = phi i64 [ %52, %34 ], [ %.sroa.647.051, %32 ]
  %.sroa.0.0.i = phi i64 [ %49, %34 ], [ %.sroa.647.051, %32 ]
  %.not.i = icmp ne i64 %.sroa.01.07.i, %.sroa.0.0.i
  %.not8.i = icmp ne i64 %.sroa.52.05.i, %.sroa.5.0.i
  %or.cond.not.i = select i1 %.not.i, i1 true, i1 %.not8.i
  %53 = zext i1 %or.cond.not.i to i32
  %.1.i = add nuw nsw i32 %.010.i, %53
  %indvars.iv.next.i = add nuw nsw i64 %indvars.iv.i, 1
  %exitcond.not.i = icmp eq i64 %indvars.iv.next.i, 7
  br i1 %exitcond.not.i, label %If_Dec7SuppSize.exit, label %32, !llvm.loop !51

If_Dec7SuppSize.exit:                             ; preds = %If_Dec7Cofactor.exit9.i, %If_Dec7Cofactor.exit9.i31
  %indvars.iv.i29 = phi i64 [ %indvars.iv.next.i40, %If_Dec7Cofactor.exit9.i31 ], [ 0, %If_Dec7Cofactor.exit9.i ]
  %.010.i30 = phi i32 [ %.1.i39, %If_Dec7Cofactor.exit9.i31 ], [ 0, %If_Dec7Cofactor.exit9.i ]
  %54 = icmp eq i64 %indvars.iv.i29, 6
  br i1 %54, label %If_Dec7Cofactor.exit9.i31, label %55

55:                                               ; preds = %If_Dec7SuppSize.exit
  %56 = getelementptr inbounds nuw [6 x i64], ptr @s_Truths6, i64 0, i64 %indvars.iv.i29
  %57 = load i64, ptr %56, align 8, !tbaa !10
  %58 = xor i64 %57, -1
  %59 = and i64 %.sroa.0.0, %58
  %60 = trunc nuw nsw i64 %indvars.iv.i29 to i32
  %61 = shl nuw nsw i32 1, %60
  %62 = zext nneg i32 %61 to i64
  %63 = shl i64 %59, %62
  %64 = or i64 %63, %59
  %65 = and i64 %.sroa.6.0, %58
  %66 = shl i64 %65, %62
  %67 = or i64 %66, %65
  %68 = and i64 %57, %.sroa.0.0
  %69 = lshr i64 %68, %62
  %70 = or i64 %69, %68
  %71 = and i64 %57, %.sroa.6.0
  %72 = lshr i64 %71, %62
  %73 = or i64 %72, %71
  br label %If_Dec7Cofactor.exit9.i31

If_Dec7Cofactor.exit9.i31:                        ; preds = %55, %If_Dec7SuppSize.exit
  %.sroa.01.07.i32 = phi i64 [ %64, %55 ], [ %.sroa.0.0, %If_Dec7SuppSize.exit ]
  %.sroa.52.05.i33 = phi i64 [ %67, %55 ], [ %.sroa.0.0, %If_Dec7SuppSize.exit ]
  %.sroa.5.0.i34 = phi i64 [ %73, %55 ], [ %.sroa.6.0, %If_Dec7SuppSize.exit ]
  %.sroa.0.0.i35 = phi i64 [ %70, %55 ], [ %.sroa.6.0, %If_Dec7SuppSize.exit ]
  %.not.i36 = icmp ne i64 %.sroa.01.07.i32, %.sroa.0.0.i35
  %.not8.i37 = icmp ne i64 %.sroa.52.05.i33, %.sroa.5.0.i34
  %or.cond.not.i38 = select i1 %.not.i36, i1 true, i1 %.not8.i37
  %74 = zext i1 %or.cond.not.i38 to i32
  %.1.i39 = add nuw nsw i32 %.010.i30, %74
  %indvars.iv.next.i40 = add nuw nsw i64 %indvars.iv.i29, 1
  %exitcond.not.i41 = icmp eq i64 %indvars.iv.next.i40, 7
  br i1 %exitcond.not.i41, label %If_Dec7SuppSize.exit42, label %If_Dec7SuppSize.exit, !llvm.loop !51

If_Dec7SuppSize.exit42:                           ; preds = %If_Dec7Cofactor.exit9.i31
  %75 = icmp samesign ult i32 %.1.i, 5
  %76 = icmp samesign ult i32 %.1.i39, 5
  %or.cond = select i1 %75, i1 %76, i1 false
  br i1 %or.cond, label %77, label %82

77:                                               ; preds = %If_Dec7SuppSize.exit42
  %78 = add nuw nsw i32 %.1.i39, %.1.i
  %79 = icmp sgt i32 %.057, %78
  br i1 %79, label %80, label %82

80:                                               ; preds = %77
  store i64 %.sroa.045.053, ptr %1, align 8, !tbaa !10
  store i64 %.sroa.647.051, ptr %5, align 8, !tbaa !10
  store i64 %.sroa.0.0, ptr %2, align 8, !tbaa !10
  store i64 %.sroa.6.0, ptr %6, align 8, !tbaa !10
  %81 = trunc nuw nsw i64 %indvars.iv to i32
  br label %82

82:                                               ; preds = %If_Dec7SuppSize.exit42, %77, %80
  %.121 = phi i32 [ %81, %80 ], [ %.02055, %77 ], [ %.02055, %If_Dec7SuppSize.exit42 ]
  %.1 = phi i32 [ %78, %80 ], [ %.057, %77 ], [ %.057, %If_Dec7SuppSize.exit42 ]
  %indvars.iv.next = add nuw nsw i64 %indvars.iv, 1
  %exitcond.not = icmp eq i64 %indvars.iv.next, 7
  br i1 %exitcond.not, label %83, label %7, !llvm.loop !52

83:                                               ; preds = %82
  ret i32 %.121
}